(dp1
S'optimFreeze_connHO'
p2
I01
sS'conn_pop_size'
p3
I30
sS'prodConstantMax'
p4
I5
sS'optimFreeze_weightsHO'
p5
I00
sS'model_pop_size'
p6
I30
sS'NGEN'
p7
I100
sS'node_pop_size'
p8
I30
sS'optimFreeze_weightsHH'
p9
I00
sS'optimFreeze_weightsIH'
p10
I00
sS'initConnectivity'
p11
S'full'
p12
sS'initTransferFn'
p13
S'all'
p14
sS'optimFreeze_connIH'
p15
I01
sS'numO'
p16
I1
sS'numH'
p17
I2
sS'numI'
p18
I4
sS'optimFreeze_connHH'
p19
I00
s.